; Function Attrs: mustprogress uwtable
define void @usnumf_formatInt64_77(ptr noundef %0, i64 noundef %1, ptr noundef %2, ptr noundef %3) local_unnamed_addr #1 personality ptr @__gxx_personality_v0 {
  %5 = alloca %"class.icu_77::number::SimpleNumber", align 8
  %6 = alloca %"class.icu_77::number::FormattedNumber", align 8
  %7 = alloca %"class.icu_77::number::FormattedNumber", align 8
  %8 = load i32, ptr %3, align 4, !tbaa !13
  %9 = icmp slt i32 %8, 1
  br i1 %9, label %10, label %_ZN6icu_7713IcuCApiHelperI16UFormattedNumberNS_6number4impl20UFormattedNumberImplELi1178881536EE8validateEPS1_R10UErrorCode.exit.thread

10:                                               ; preds = %4
  %11 = icmp eq ptr %0, null
  br i1 %11, label %.sink.split.i, label %12

12:                                               ; preds = %10
  %13 = load i32, ptr %0, align 4, !tbaa !83
  %.not9.i = icmp eq i32 %13, 1397638656
  br i1 %.not9.i, label %_ZN6icu_7713IcuCApiHelperI22USimpleNumberFormatterNS_6number4impl26USimpleNumberFormatterDataELi1397638656EE8validateEPKS1_R10UErrorCode.exit, label %.sink.split.i

.sink.split.i:                                    ; preds = %12, %10
  %.sink.i = phi i32 [ 1, %10 ], [ 3, %12 ]
  store i32 %.sink.i, ptr %3, align 4, !tbaa !13
  br label %_ZN6icu_7713IcuCApiHelperI16UFormattedNumberNS_6number4impl20UFormattedNumberImplELi1178881536EE8validateEPS1_R10UErrorCode.exit.thread

_ZN6icu_7713IcuCApiHelperI22USimpleNumberFormatterNS_6number4impl26USimpleNumberFormatterDataELi1397638656EE8validateEPKS1_R10UErrorCode.exit: ; preds = %12
  %14 = icmp eq ptr %2, null
  br i1 %14, label %.sink.split.i.i, label %15

15:                                               ; preds = %_ZN6icu_7713IcuCApiHelperI22USimpleNumberFormatterNS_6number4impl26USimpleNumberFormatterDataELi1397638656EE8validateEPKS1_R10UErrorCode.exit
  %16 = getelementptr inbounds nuw i8, ptr %2, i64 16
  %17 = load i32, ptr %16, align 4, !tbaa !20
  %.not9.i.i = icmp eq i32 %17, 1178881536
  br i1 %.not9.i.i, label %_ZN6icu_7713IcuCApiHelperI16UFormattedNumberNS_6number4impl20UFormattedNumberImplELi1178881536EE8validateEPS1_R10UErrorCode.exit, label %.sink.split.i.i

.sink.split.i.i:                                  ; preds = %15, %_ZN6icu_7713IcuCApiHelperI22USimpleNumberFormatterNS_6number4impl26USimpleNumberFormatterDataELi1397638656EE8validateEPKS1_R10UErrorCode.exit
  %.sink.i.i = phi i32 [ 1, %_ZN6icu_7713IcuCApiHelperI22USimpleNumberFormatterNS_6number4impl26USimpleNumberFormatterDataELi1397638656EE8validateEPKS1_R10UErrorCode.exit ], [ 3, %15 ]
  store i32 %.sink.i.i, ptr %3, align 4, !tbaa !13
  br label %_ZN6icu_7713IcuCApiHelperI16UFormattedNumberNS_6number4impl20UFormattedNumberImplELi1178881536EE8validateEPS1_R10UErrorCode.exit.thread

_ZN6icu_7713IcuCApiHelperI16UFormattedNumberNS_6number4impl20UFormattedNumberImplELi1178881536EE8validateEPS1_R10UErrorCode.exit: ; preds = %15
  call void @llvm.lifetime.start.p0(i64 24, ptr nonnull %6) #15
  %18 = getelementptr inbounds nuw i8, ptr %0, i64 8
  call void @llvm.lifetime.start.p0(i64 16, ptr nonnull %5)
  call void @_ZN6icu_776number12SimpleNumber8forInt64ElR10UErrorCode(ptr dead_on_unwind nonnull writable sret(%"class.icu_77::number::SimpleNumber") align 8 %5, i64 noundef %1, ptr noundef nonnull align 4 dereferenceable(4) %3), !noalias !94
  invoke void @_ZNK6icu_776number21SimpleNumberFormatter6formatENS0_12SimpleNumberER10UErrorCode(ptr dead_on_unwind nonnull writable sret(%"class.icu_77::number::FormattedNumber") align 8 %6, ptr noundef nonnull align 8 dereferenceable(32) %18, ptr noundef nonnull %5, ptr noundef nonnull align 4 dereferenceable(4) %3)
          to label %19 unwind label %23

19:                                               ; preds = %_ZN6icu_7713IcuCApiHelperI16UFormattedNumberNS_6number4impl20UFormattedNumberImplELi1178881536EE8validateEPS1_R10UErrorCode.exit
  invoke void @_ZN6icu_776number12SimpleNumber7cleanupEv(ptr noundef nonnull align 8 dereferenceable(12) %5)
          to label %_ZNK6icu_776number21SimpleNumberFormatter11formatInt64ElR10UErrorCode.exit unwind label %20

20:                                               ; preds = %19
  %21 = landingpad { ptr, i32 }
          catch ptr null
  %22 = extractvalue { ptr, i32 } %21, 0
  call void @__clang_call_terminate(ptr %22) #17
  unreachable

23:                                               ; preds = %_ZN6icu_7713IcuCApiHelperI16UFormattedNumberNS_6number4impl20UFormattedNumberImplELi1178881536EE8validateEPS1_R10UErrorCode.exit
  %24 = landingpad { ptr, i32 }
          cleanup
  invoke void @_ZN6icu_776number12SimpleNumber7cleanupEv(ptr noundef nonnull align 8 dereferenceable(12) %5)
          to label %common.resume unwind label %25

25:                                               ; preds = %23
  %26 = landingpad { ptr, i32 }
          catch ptr null
  %27 = extractvalue { ptr, i32 } %26, 0
  call void @__clang_call_terminate(ptr %27) #17
  unreachable

common.resume:                                    ; preds = %23, %32
  %common.resume.op = phi { ptr, i32 } [ %33, %32 ], [ %24, %23 ]
  resume { ptr, i32 } %common.resume.op

_ZNK6icu_776number21SimpleNumberFormatter11formatInt64ElR10UErrorCode.exit: ; preds = %19
  call void @llvm.lifetime.end.p0(i64 16, ptr nonnull %5)
  call void @_ZN6icu_776number15FormattedNumberC1EOS1_(ptr noundef nonnull align 8 dereferenceable(20) %7, ptr noundef nonnull align 8 dereferenceable(20) %6) #15
  %28 = getelementptr inbounds nuw i8, ptr %7, i64 8
  %29 = load ptr, ptr %28, align 8, !tbaa !24
  %30 = getelementptr inbounds nuw i8, ptr %2, i64 48
  %31 = invoke noundef nonnull align 8 dereferenceable(408) ptr @_ZN6icu_776number4impl20UFormattedNumberDataaSEOS2_(ptr noundef nonnull align 8 dereferenceable(408) %30, ptr noundef nonnull align 8 dereferenceable(408) %29)
          to label %_ZN6icu_776number4impl20UFormattedNumberImpl5setToENS0_15FormattedNumberE.exit unwind label %32

_ZN6icu_776number4impl20UFormattedNumberImpl5setToENS0_15FormattedNumberE.exit: ; preds = %_ZNK6icu_776number21SimpleNumberFormatter11formatInt64ElR10UErrorCode.exit
  call void @_ZN6icu_776number15FormattedNumberD1Ev(ptr noundef nonnull align 8 dereferenceable(20) %7) #15
  call void @_ZN6icu_776number15FormattedNumberD1Ev(ptr noundef nonnull align 8 dereferenceable(20) %6) #15
  call void @llvm.lifetime.end.p0(i64 24, ptr nonnull %6) #15
  br label %_ZN6icu_7713IcuCApiHelperI16UFormattedNumberNS_6number4impl20UFormattedNumberImplELi1178881536EE8validateEPS1_R10UErrorCode.exit.thread

_ZN6icu_7713IcuCApiHelperI16UFormattedNumberNS_6number4impl20UFormattedNumberImplELi1178881536EE8validateEPS1_R10UErrorCode.exit.thread: ; preds = %.sink.split.i, %4, %.sink.split.i.i, %_ZN6icu_776number4impl20UFormattedNumberImpl5setToENS0_15FormattedNumberE.exit
  ret void

32:                                               ; preds = %_ZNK6icu_776number21SimpleNumberFormatter11formatInt64ElR10UErrorCode.exit
  %33 = landingpad { ptr, i32 }
          cleanup
  call void @_ZN6icu_776number15FormattedNumberD1Ev(ptr noundef nonnull align 8 dereferenceable(20) %7) #15
  call void @_ZN6icu_776number15FormattedNumberD1Ev(ptr noundef nonnull align 8 dereferenceable(20) %6) #15
  call void @llvm.lifetime.end.p0(i64 24, ptr nonnull %6) #15
  br label %common.resume
}